Certificate:
    Data:
        Version: 3 (0x2)
        Serial Number: 26 (0x1a)
        Signature Algorithm: sha256WithRSAEncryption
        Issuer: C=US, O=Google, OU=Enterprise, CN=Enterprise Subordinate CA
        Validity
            Not Before: Jul 14 00:42:24 2022 GMT
            Not After : Oct 21 00:42:24 2024 GMT
        Subject: C=US, O=Google, OU=Enterprise, CN=clientjwt.domain.com
        Subject Public Key Info:
            Public Key Algorithm: rsaEncryption
                RSA Public-Key: (2048 bit)
                Modulus:
                    00:a9:26:f4:8b:f2:2f:fb:ab:79:8e:a4:07:0c:6f:
                    a4:73:16:a7:49:c8:81:48:a6:19:49:9a:9b:f7:60:
                    08:12:6e:53:8f:8a:25:ed:35:ca:f1:57:85:40:fc:
                    0a:47:7a:26:dc:ee:42:6e:ff:5d:ba:c8:e9:01:d9:
                    30:38:09:7e:dd:5b:96:f3:ec:df:28:da:62:13:11:
                    af:f1:9d:b4:4c:25:46:bc:0c:13:3d:0c:1d:97:4e:
                    4b:83:fd:6e:1d:13:74:e2:36:7d:b6:d8:de:c2:1d:
                    df:f9:20:c7:0e:30:f8:53:9c:0e:6e:e5:e7:74:fe:
                    41:23:02:20:d4:3a:a9:e5:c9:db:11:fc:44:c6:28:
                    b7:b2:26:9b:a9:ef:55:5d:95:eb:07:10:7a:f3:13:
                    cc:37:ff:6b:1a:52:45:79:70:dc:bd:bb:35:41:9c:
                    e2:db:15:d7:56:47:56:08:ac:90:c4:c4:5b:b4:80:
                    af:a1:41:07:33:6b:ad:a3:09:e6:26:49:46:4d:5f:
                    19:d3:23:91:b5:28:7a:5e:50:cf:da:12:35:7e:33:
                    0e:c9:8b:86:6a:c1:14:b8:87:a0:c6:a2:4b:fd:ba:
                    ad:41:5a:b5:f5:62:99:62:16:4a:79:5f:3e:a1:5e:
                    71:3e:2f:c7:d0:ad:75:d0:10:43:cd:58:86:b6:b6:
                    4f:59
                Exponent: 65537 (0x10001)
        X509v3 extensions:
            X509v3 Key Usage: critical
                Digital Signature
            X509v3 Basic Constraints: 
                CA:FALSE
            X509v3 Subject Key Identifier: 
                41:61:62:17:5C:0A:7F:EC:3C:D5:51:2F:19:66:75:DA:0E:B0:C1:66
            X509v3 Authority Key Identifier: 
                keyid:B7:BA:B0:02:A1:E7:BE:34:C6:C1:05:5C:66:78:E5:BB:53:5D:A1:54

            Authority Information Access: 
                CA Issuers - URI:http://pki.esodemoapp2.com/ca/tls-ca.cer

            X509v3 CRL Distribution Points: 

                Full Name:
                  URI:http://pki.esodemoapp2.com/ca/tls-ca.crl

            X509v3 Subject Alternative Name: 
                DNS:clientjwt.domain.com
    Signature Algorithm: sha256WithRSAEncryption
         2c:43:02:81:2b:56:be:a2:d5:5d:d3:c5:33:07:d5:3e:1b:59:
         bc:08:08:b6:4f:b5:8f:b3:3a:fa:fa:24:e7:fa:df:82:d3:4b:
         f1:0f:25:a5:c4:81:5c:27:fd:2e:9e:51:df:ce:c5:f1:9d:bf:
         93:29:ef:ed:f9:d2:a8:31:0d:47:7c:aa:93:fa:a6:cc:b3:5d:
         71:8a:cd:d3:07:5b:cc:2c:d0:e0:63:65:1c:b9:35:53:01:cb:
         41:7e:15:80:de:1d:c4:b6:24:1f:c6:5c:16:ba:7d:17:ee:0f:
         22:b8:f7:c6:ae:b3:0a:42:48:4e:59:98:94:e3:54:44:29:19:
         18:15:42:a1:f3:ca:3a:cc:ab:63:97:20:c3:bd:15:b0:b8:8d:
         10:36:c9:49:a8:c1:78:b2:bf:23:af:52:bc:bc:11:24:7a:3c:
         ce:e8:f7:22:56:58:fd:f9:6e:c4:16:12:eb:a4:6f:50:a4:c1:
         83:03:9a:33:08:1d:56:07:59:5f:1f:98:7a:6e:61:cd:b0:8c:
         ca:6d:66:b7:e3:94:62:70:25:6d:ce:37:18:83:23:e3:60:69:
         a6:94:b5:8b:80:d2:df:a1:9d:db:0c:0f:3e:9d:30:34:8a:19:
         30:8d:57:40:b6:f3:dd:67:68:40:32:47:80:7e:54:b9:d3:17:
         6c:4a:e9:f1
-----BEGIN CERTIFICATE-----
MIIEJjCCAw6gAwIBAgIBGjANBgkqhkiG9w0BAQsFADBXMQswCQYDVQQGEwJVUzEP
MA0GA1UECgwGR29vZ2xlMRMwEQYDVQQLDApFbnRlcnByaXNlMSIwIAYDVQQDDBlF
bnRlcnByaXNlIFN1Ym9yZGluYXRlIENBMB4XDTIyMDcxNDAwNDIyNFoXDTI0MTAy
MTAwNDIyNFowUjELMAkGA1UEBhMCVVMxDzANBgNVBAoMBkdvb2dsZTETMBEGA1UE
CwwKRW50ZXJwcmlzZTEdMBsGA1UEAwwUY2xpZW50and0LmRvbWFpbi5jb20wggEi
MA0GCSqGSIb3DQEBAQUAA4IBDwAwggEKAoIBAQCpJvSL8i/7q3mOpAcMb6RzFqdJ
yIFIphlJmpv3YAgSblOPiiXtNcrxV4VA/ApHeibc7kJu/126yOkB2TA4CX7dW5bz
7N8o2mITEa/xnbRMJUa8DBM9DB2XTkuD/W4dE3TiNn222N7CHd/5IMcOMPhTnA5u
5ed0/kEjAiDUOqnlydsR/ETGKLeyJpup71VdlesHEHrzE8w3/2saUkV5cNy9uzVB
nOLbFddWR1YIrJDExFu0gK+hQQcza62jCeYmSUZNXxnTI5G1KHpeUM/aEjV+Mw7J
i4ZqwRS4h6DGokv9uq1BWrX1YpliFkp5Xz6hXnE+L8fQrXXQEEPNWIa2tk9ZAgMB
AAGjggEAMIH9MA4GA1UdDwEB/wQEAwIHgDAJBgNVHRMEAjAAMB0GA1UdDgQWBBRB
YWIXXAp/7DzVUS8ZZnXaDrDBZjAfBgNVHSMEGDAWgBS3urACoee+NMbBBVxmeOW7
U12hVDBEBggrBgEFBQcBAQQ4MDYwNAYIKwYBBQUHMAKGKGh0dHA6Ly9wa2kuZXNv
ZGVtb2FwcDIuY29tL2NhL3Rscy1jYS5jZXIwOQYDVR0fBDIwMDAuoCygKoYoaHR0
cDovL3BraS5lc29kZW1vYXBwMi5jb20vY2EvdGxzLWNhLmNybDAfBgNVHREEGDAW
ghRjbGllbnRqd3QuZG9tYWluLmNvbTANBgkqhkiG9w0BAQsFAAOCAQEALEMCgStW
vqLVXdPFMwfVPhtZvAgItk+1j7M6+vok5/rfgtNL8Q8lpcSBXCf9Lp5R387F8Z2/
kynv7fnSqDENR3yqk/qmzLNdcYrN0wdbzCzQ4GNlHLk1UwHLQX4VgN4dxLYkH8Zc
Frp9F+4PIrj3xq6zCkJITlmYlONURCkZGBVCofPKOsyrY5cgw70VsLiNEDbJSajB
eLK/I69SvLwRJHo8zuj3IlZY/fluxBYS66RvUKTBgwOaMwgdVgdZXx+Yem5hzbCM
ym1mt+OUYnAlbc43GIMj42BpppS1i4DS36Gd2wwPPp0wNIoZMI1XQLbz3WdoQDJH
gH5UudMXbErp8Q==
-----END CERTIFICATE-----
