Certificate:
    Data:
        Version: 3 (0x2)
        Serial Number: 22 (0x16)
        Signature Algorithm: sha256WithRSAEncryption
        Issuer: C=US, O=Google, OU=Enterprise, CN=Enterprise Subordinate CA
        Validity
            Not Before: Jul 14 00:14:38 2022 GMT
            Not After : Oct 21 00:14:38 2024 GMT
        Subject: C=US, O=Google, OU=Enterprise, CN=client@domain.com
        Subject Public Key Info:
            Public Key Algorithm: rsaEncryption
                RSA Public-Key: (2048 bit)
                Modulus:
                    00:bb:e7:8e:f3:7e:70:dc:50:48:77:bc:07:9f:d5:
                    18:b6:5b:d0:c5:88:7c:19:7b:74:87:3d:9d:2b:2f:
                    a4:07:d3:84:84:17:b1:ea:45:01:8f:39:d3:89:a4:
                    2f:e3:99:eb:b6:0f:f0:50:52:5d:23:6a:83:71:bd:
                    2b:5d:99:ed:27:45:ed:b9:99:58:60:3a:b0:a8:cc:
                    3e:a6:5e:fd:88:e4:10:f7:64:a5:be:8b:8d:eb:f6:
                    b8:f2:3e:fa:86:df:0b:dd:cf:6d:61:bf:bc:5a:e5:
                    04:ca:e3:09:06:1e:be:2f:5e:e3:f9:ee:81:41:95:
                    4d:f0:5a:45:b0:b7:b5:44:0b:71:8b:0a:1b:46:b5:
                    b6:74:03:1a:ad:e6:d0:d4:0b:f2:67:d9:29:10:78:
                    2f:6d:d3:77:cb:15:72:89:c1:01:07:5b:4f:3a:ad:
                    e4:77:c9:7b:eb:d0:58:f1:c6:68:51:31:36:e6:1d:
                    9a:b7:10:7a:b3:b3:2a:59:99:8a:3e:7f:c4:15:fa:
                    7d:1c:1d:e1:20:60:28:32:87:87:4b:71:25:db:01:
                    25:93:d7:47:7e:9a:22:e2:18:20:5a:ab:33:e4:59:
                    45:2b:2d:ef:d6:21:73:44:6f:26:68:ee:a4:b2:02:
                    02:92:7e:29:23:b0:fb:bd:ab:34:94:9d:bf:59:05:
                    19:c9
                Exponent: 65537 (0x10001)
        X509v3 extensions:
            X509v3 Key Usage: critical
                Digital Signature
            X509v3 Basic Constraints: 
                CA:FALSE
            X509v3 Extended Key Usage: 
                TLS Web Client Authentication
            X509v3 Subject Key Identifier: 
                AA:69:98:31:61:3B:04:B7:C8:3B:1E:90:B4:BB:55:4C:EE:74:11:D1
            X509v3 Authority Key Identifier: 
                keyid:B7:BA:B0:02:A1:E7:BE:34:C6:C1:05:5C:66:78:E5:BB:53:5D:A1:54

            Authority Information Access: 
                CA Issuers - URI:http://pki.esodemoapp2.com/ca/tls-ca.cer

            X509v3 CRL Distribution Points: 

                Full Name:
                  URI:http://pki.esodemoapp2.com/ca/tls-ca.crl

            X509v3 Subject Alternative Name: 
                DNS:client@domain.com
    Signature Algorithm: sha256WithRSAEncryption
         94:c3:0b:60:99:2f:5b:c4:d4:57:d6:70:95:f4:fe:c2:f7:4f:
         d0:d0:f4:d9:2e:a1:d1:2b:f7:d0:db:3e:02:ca:a9:07:b4:cd:
         42:f4:69:02:9a:80:e0:d0:33:e9:b8:9c:b0:06:db:c6:77:cf:
         df:89:e8:ab:0e:e1:b9:92:38:3b:3e:94:70:6f:eb:f5:40:33:
         ca:83:64:cb:82:fe:e3:fc:47:8f:27:4e:dd:e6:a3:81:64:28:
         b6:14:cf:c2:c3:19:99:3a:5c:cf:4e:6b:fc:30:e0:5d:51:3f:
         bf:35:c8:fd:ca:ae:8c:0c:29:96:40:f3:76:35:4c:f5:3c:f8:
         30:e0:ec:ca:16:9f:f8:ce:5b:e9:12:b6:77:7e:0a:26:ae:b0:
         df:4d:d7:d2:af:45:9f:7c:6b:e0:39:f2:2f:97:f0:c4:19:d0:
         23:9f:56:54:b8:d0:06:12:4a:65:a6:d5:ee:3e:a1:50:ff:db:
         ee:1b:37:82:9e:6e:73:c5:87:1b:d3:88:b8:e3:d9:dd:40:f7:
         40:d7:52:be:0c:93:68:52:b4:a3:c2:f3:1e:13:02:d4:1f:4e:
         85:01:ba:dc:e8:04:07:a2:68:ac:53:6b:61:f9:be:eb:00:5f:
         af:37:f3:51:b1:6d:dc:28:b4:72:b1:08:d3:7f:29:19:79:f7:
         ac:93:bc:30
-----BEGIN CERTIFICATE-----
MIIENjCCAx6gAwIBAgIBFjANBgkqhkiG9w0BAQsFADBXMQswCQYDVQQGEwJVUzEP
MA0GA1UECgwGR29vZ2xlMRMwEQYDVQQLDApFbnRlcnByaXNlMSIwIAYDVQQDDBlF
bnRlcnByaXNlIFN1Ym9yZGluYXRlIENBMB4XDTIyMDcxNDAwMTQzOFoXDTI0MTAy
MTAwMTQzOFowTzELMAkGA1UEBhMCVVMxDzANBgNVBAoMBkdvb2dsZTETMBEGA1UE
CwwKRW50ZXJwcmlzZTEaMBgGA1UEAwwRY2xpZW50QGRvbWFpbi5jb20wggEiMA0G
CSqGSIb3DQEBAQUAA4IBDwAwggEKAoIBAQC7547zfnDcUEh3vAef1Ri2W9DFiHwZ
e3SHPZ0rL6QH04SEF7HqRQGPOdOJpC/jmeu2D/BQUl0jaoNxvStdme0nRe25mVhg
OrCozD6mXv2I5BD3ZKW+i43r9rjyPvqG3wvdz21hv7xa5QTK4wkGHr4vXuP57oFB
lU3wWkWwt7VEC3GLChtGtbZ0Axqt5tDUC/Jn2SkQeC9t03fLFXKJwQEHW086reR3
yXvr0FjxxmhRMTbmHZq3EHqzsypZmYo+f8QV+n0cHeEgYCgyh4dLcSXbASWT10d+
miLiGCBaqzPkWUUrLe/WIXNEbyZo7qSyAgKSfikjsPu9qzSUnb9ZBRnJAgMBAAGj
ggETMIIBDzAOBgNVHQ8BAf8EBAMCB4AwCQYDVR0TBAIwADATBgNVHSUEDDAKBggr
BgEFBQcDAjAdBgNVHQ4EFgQUqmmYMWE7BLfIOx6QtLtVTO50EdEwHwYDVR0jBBgw
FoAUt7qwAqHnvjTGwQVcZnjlu1NdoVQwRAYIKwYBBQUHAQEEODA2MDQGCCsGAQUF
BzAChihodHRwOi8vcGtpLmVzb2RlbW9hcHAyLmNvbS9jYS90bHMtY2EuY2VyMDkG
A1UdHwQyMDAwLqAsoCqGKGh0dHA6Ly9wa2kuZXNvZGVtb2FwcDIuY29tL2NhL3Rs
cy1jYS5jcmwwHAYDVR0RBBUwE4IRY2xpZW50QGRvbWFpbi5jb20wDQYJKoZIhvcN
AQELBQADggEBAJTDC2CZL1vE1FfWcJX0/sL3T9DQ9NkuodEr99DbPgLKqQe0zUL0
aQKagODQM+m4nLAG28Z3z9+J6KsO4bmSODs+lHBv6/VAM8qDZMuC/uP8R48nTt3m
o4FkKLYUz8LDGZk6XM9Oa/ww4F1RP781yP3KrowMKZZA83Y1TPU8+DDg7MoWn/jO
W+kStnd+CiausN9N19KvRZ98a+A58i+X8MQZ0COfVlS40AYSSmWm1e4+oVD/2+4b
N4KebnPFhxvTiLjj2d1A90DXUr4Mk2hStKPC8x4TAtQfToUButzoBAeiaKxTa2H5
vusAX68381GxbdwotHKxCNN/KRl596yTvDA=
-----END CERTIFICATE-----
