Certificate:
    Data:
        Version: 3 (0x2)
        Serial Number: 18 (0x12)
        Signature Algorithm: sha1WithRSAEncryption
        Issuer: C=US, O=Google, OU=Enterprise, CN=Enterprise Subordinate CA
        Validity
            Not Before: Nov 28 14:08:32 2020 GMT
            Not After : Nov 28 14:08:32 2022 GMT
        Subject: C=US, O=Google, OU=Enterprise, CN=sts.domain.com
        Subject Public Key Info:
            Public Key Algorithm: rsaEncryption
                RSA Public-Key: (2048 bit)
                Modulus:
                    00:c1:48:f5:94:24:d0:b2:f4:74:71:f7:bc:d2:59:
                    92:5a:a5:90:6b:cd:f9:a2:06:f1:6c:d8:dc:ad:5a:
                    48:37:0e:a3:98:7a:4f:13:c3:26:28:27:51:96:62:
                    07:c9:d3:2c:0c:2f:2b:7c:fa:a8:d3:50:cc:fd:a1:
                    26:b3:3d:56:b3:a7:47:25:aa:b4:2f:f0:e8:e0:87:
                    df:4a:47:92:7c:64:a6:0a:07:ed:04:57:c5:f5:c5:
                    27:c9:18:14:f3:fe:41:14:fc:09:ac:79:bf:d5:e7:
                    11:be:54:a7:e3:73:39:34:31:a6:62:5a:9c:2b:31:
                    9f:2b:a2:0b:e0:be:fb:46:04:54:e7:9f:f8:7b:61:
                    36:71:a2:e6:11:7f:cf:4f:43:e1:dd:43:b8:68:6e:
                    57:1e:a4:f0:f5:c0:16:7e:9d:59:93:5b:c7:88:ea:
                    56:e6:e4:f8:99:42:5c:a5:c5:13:84:fe:57:0b:3e:
                    d4:d3:2a:b2:2b:3b:04:84:81:9e:a2:36:91:e7:97:
                    6a:f0:80:ff:0c:bb:74:45:ac:a4:08:f5:7e:f8:cf:
                    0f:19:2a:66:da:64:27:c8:e0:66:99:70:46:a2:9b:
                    c4:48:26:59:21:34:59:1d:97:cb:8d:be:cf:c8:b6:
                    91:9e:17:5e:44:b1:ce:1d:6d:e5:b2:71:f2:67:cd:
                    d0:39
                Exponent: 65537 (0x10001)
        X509v3 extensions:
            X509v3 Key Usage: critical
                Digital Signature
            X509v3 Basic Constraints: 
                CA:FALSE
            X509v3 Subject Key Identifier: 
                E6:BC:58:94:0B:A9:3B:2C:B6:10:D9:D4:2E:C8:02:F9:E8:93:09:D8
            X509v3 Authority Key Identifier: 
                keyid:BF:E1:1C:F0:22:48:8F:FC:3B:CF:5D:D9:ED:AE:88:70:21:DF:DD:86

            Authority Information Access: 
                CA Issuers - URI:http://pki.esodemoapp2.com/ca/tls-ca.cer

            X509v3 CRL Distribution Points: 

                Full Name:
                  URI:http://pki.esodemoapp2.com/ca/tls-ca.crl

            X509v3 Subject Alternative Name: 
                DNS:clientjwt.domain.com
    Signature Algorithm: sha1WithRSAEncryption
         c5:bd:63:59:d7:17:18:02:b0:88:c4:55:21:2a:61:e7:bc:3e:
         59:08:e2:bb:a0:7f:08:c2:35:bd:e9:f5:aa:ee:5a:dd:ae:52:
         bb:41:a8:96:83:9d:22:1a:fc:aa:98:bc:5f:97:59:2f:ca:8a:
         8e:f0:ef:cb:f6:58:a9:e2:68:67:bd:9c:82:3e:1e:c2:05:f4:
         9b:90:9d:ee:3b:7d:47:4d:48:0f:1f:94:7e:f1:e0:fd:98:70:
         69:b3:03:fa:50:57:8d:2a:59:24:79:7d:80:56:be:51:0f:9a:
         7d:c4:13:ff:65:18:60:74:fa:81:47:be:73:60:cf:d9:9a:61:
         ec:02:68:00:18:b6:78:eb:6e:a5:23:78:e7:12:9a:a0:b1:8d:
         ba:93:11:18:0b:26:d5:4e:16:6b:bb:cf:73:7e:fb:d2:ca:e0:
         3d:cc:c7:d4:53:22:ab:71:ce:6c:5f:ea:cc:a8:e0:29:56:bb:
         4f:88:90:fb:25:3e:20:e2:97:fb:d9:4f:df:04:51:db:1e:6e:
         8c:5e:ee:18:d1:9d:73:cc:1e:b8:5e:1a:55:25:37:f5:3b:73:
         55:36:4b:96:2a:ac:e6:a9:e7:76:ee:2d:b1:4a:73:50:0e:79:
         81:9d:ba:a7:9b:92:93:d3:0e:9f:50:bf:7d:69:d2:33:3a:72:
         fc:a0:8a:7e
-----BEGIN CERTIFICATE-----
MIIEIDCCAwigAwIBAgIBEjANBgkqhkiG9w0BAQUFADBXMQswCQYDVQQGEwJVUzEP
MA0GA1UECgwGR29vZ2xlMRMwEQYDVQQLDApFbnRlcnByaXNlMSIwIAYDVQQDDBlF
bnRlcnByaXNlIFN1Ym9yZGluYXRlIENBMB4XDTIwMTEyODE0MDgzMloXDTIyMTEy
ODE0MDgzMlowTDELMAkGA1UEBhMCVVMxDzANBgNVBAoMBkdvb2dsZTETMBEGA1UE
CwwKRW50ZXJwcmlzZTEXMBUGA1UEAwwOc3RzLmRvbWFpbi5jb20wggEiMA0GCSqG
SIb3DQEBAQUAA4IBDwAwggEKAoIBAQDBSPWUJNCy9HRx97zSWZJapZBrzfmiBvFs
2NytWkg3DqOYek8TwyYoJ1GWYgfJ0ywMLyt8+qjTUMz9oSazPVazp0clqrQv8Ojg
h99KR5J8ZKYKB+0EV8X1xSfJGBTz/kEU/Amseb/V5xG+VKfjczk0MaZiWpwrMZ8r
ogvgvvtGBFTnn/h7YTZxouYRf89PQ+HdQ7hoblcepPD1wBZ+nVmTW8eI6lbm5PiZ
QlylxROE/lcLPtTTKrIrOwSEgZ6iNpHnl2rwgP8Mu3RFrKQI9X74zw8ZKmbaZCfI
4GaZcEaim8RIJlkhNFkdl8uNvs/ItpGeF15Esc4dbeWycfJnzdA5AgMBAAGjggEA
MIH9MA4GA1UdDwEB/wQEAwIHgDAJBgNVHRMEAjAAMB0GA1UdDgQWBBTmvFiUC6k7
LLYQ2dQuyAL56JMJ2DAfBgNVHSMEGDAWgBS/4RzwIkiP/DvPXdntrohwId/dhjBE
BggrBgEFBQcBAQQ4MDYwNAYIKwYBBQUHMAKGKGh0dHA6Ly9wa2kuZXNvZGVtb2Fw
cDIuY29tL2NhL3Rscy1jYS5jZXIwOQYDVR0fBDIwMDAuoCygKoYoaHR0cDovL3Br
aS5lc29kZW1vYXBwMi5jb20vY2EvdGxzLWNhLmNybDAfBgNVHREEGDAWghRjbGll
bnRqd3QuZG9tYWluLmNvbTANBgkqhkiG9w0BAQUFAAOCAQEAxb1jWdcXGAKwiMRV
ISph57w+WQjiu6B/CMI1ven1qu5a3a5Su0GoloOdIhr8qpi8X5dZL8qKjvDvy/ZY
qeJoZ72cgj4ewgX0m5Cd7jt9R01IDx+UfvHg/ZhwabMD+lBXjSpZJHl9gFa+UQ+a
fcQT/2UYYHT6gUe+c2DP2Zph7AJoABi2eOtupSN45xKaoLGNupMRGAsm1U4Wa7vP
c3770srgPczH1FMiq3HObF/qzKjgKVa7T4iQ+yU+IOKX+9lP3wRR2x5ujF7uGNGd
c8weuF4aVSU39TtzVTZLliqs5qnndu4tsUpzUA55gZ26p5uSk9MOn1C/fWnSMzpy
/KCKfg==
-----END CERTIFICATE-----
