Certificate:
    Data:
        Version: 3 (0x2)
        Serial Number: 10 (0xa)
        Signature Algorithm: sha256WithRSAEncryption
        Issuer: C=US, O=Google, OU=Enterprise, CN=Single Root CA
        Validity
            Not Before: Apr  1 22:32:37 2024 GMT
            Not After : Apr  1 22:32:37 2034 GMT
        Subject: L=US, O=Google, OU=Enterprise, CN=client.domain.com
        Subject Public Key Info:
            Public Key Algorithm: rsaEncryption
                Public-Key: (2048 bit)
                Modulus:
                    00:c5:04:5f:dc:b0:0f:00:cb:81:5b:5a:d0:00:40:
                    05:16:ec:81:b9:b9:27:4a:47:46:90:a8:6c:d8:08:
                    cb:e0:d4:c6:2a:39:ef:0c:e1:86:c9:97:c0:3d:13:
                    40:eb:8f:7d:b9:fd:b4:3b:95:89:9d:5d:cb:06:db:
                    d9:1c:df:12:1c:6b:f9:2d:fa:32:17:74:46:13:65:
                    5a:85:d3:ba:ed:f3:09:a1:a6:47:08:03:d6:85:e6:
                    27:77:6f:3e:4c:bb:0b:08:bf:2c:b6:e4:ab:08:b5:
                    62:99:cd:8b:2a:fa:d7:43:9a:fa:b9:55:62:fa:e9:
                    41:e9:1a:43:fd:8f:6a:c2:3e:82:c9:e4:ac:08:99:
                    11:bc:19:f8:62:9c:8b:e6:5d:ef:47:73:86:74:6c:
                    20:f4:53:da:f4:79:f7:4d:89:e7:3c:7e:fc:1b:79:
                    e4:14:11:75:5d:8b:2f:cf:5d:ef:86:dc:f6:f2:34:
                    df:bd:7a:39:a4:85:54:26:7c:3d:7e:35:a2:bf:ea:
                    85:48:03:d3:c0:d4:55:7b:27:e4:8c:5b:2e:da:10:
                    cf:33:c5:0e:36:8f:82:44:9b:11:60:85:f3:f5:82:
                    5a:c6:89:b9:9a:ae:27:73:39:75:96:db:7e:f1:14:
                    6f:34:af:c4:fb:79:d9:62:c9:4c:69:c0:fc:e6:14:
                    2e:73
                Exponent: 65537 (0x10001)
        X509v3 extensions:
            X509v3 Key Usage: critical
                Digital Signature
            X509v3 Basic Constraints: 
                CA:FALSE
            X509v3 Extended Key Usage: 
                TLS Web Client Authentication
            X509v3 Subject Key Identifier: 
                99:E4:29:CF:64:23:B1:E9:3D:62:9B:83:D9:16:98:E9:35:5C:88:28
            X509v3 Authority Key Identifier: 
                EC:F0:EA:53:53:3F:9F:23:DC:C1:0E:31:10:37:07:DE:DE:E7:6E:F3
            Authority Information Access: 
                CA Issuers - URI:http://pki.esodemoapp2.com/ca/root-ca.cer
            X509v3 CRL Distribution Points: 
                Full Name:
                  URI:http://pki.esodemoapp2.com/ca/root-ca.crl
            X509v3 Subject Alternative Name: 
                DNS:client.domain.com
    Signature Algorithm: sha256WithRSAEncryption
    Signature Value:
        11:62:c6:7b:8b:a1:60:21:84:cd:96:6e:bb:e4:f3:74:54:2d:
        a6:d9:21:3c:ab:d4:23:22:75:3d:7a:f0:4f:c4:91:bd:f9:13:
        5e:d9:2d:2c:44:ed:5f:2c:fb:79:e4:3e:57:fa:53:bf:b0:c1:
        e5:7f:0e:f8:ab:6c:f6:1f:73:8f:37:0b:29:9c:bd:57:d2:19:
        ee:88:e3:d5:44:09:8c:13:da:bb:4e:4d:f9:07:16:86:90:c4:
        d9:e7:6f:27:ab:85:8f:ef:3d:a5:5b:bb:dc:23:e4:b2:16:bb:
        9e:22:5e:6c:79:9f:07:f8:e1:f6:ff:3c:ca:64:0b:c9:5f:fd:
        d6:ed:40:3e:7f:7d:28:f8:83:a3:f3:25:0f:57:60:bc:75:ab:
        8a:af:bc:3d:21:74:13:8e:99:03:b3:8c:f9:4d:67:6d:a6:5f:
        22:e7:25:1f:cb:30:7a:a1:76:6f:e8:5d:da:3d:56:fb:75:4c:
        23:64:90:d1:32:31:58:9e:6a:78:cb:1e:a6:2d:cb:b8:0f:e9:
        cc:84:e5:fd:59:fc:ee:bc:01:40:c0:0b:da:da:e3:21:5d:3c:
        57:62:69:b6:04:d1:5e:f7:5d:fb:6b:5f:02:cd:23:61:87:71:
        9a:f0:3f:ec:e0:4c:11:f5:8f:20:4a:db:af:52:b4:b4:a1:0c:
        d1:6a:85:52
-----BEGIN CERTIFICATE-----
MIIELTCCAxWgAwIBAgIBCjANBgkqhkiG9w0BAQsFADBMMQswCQYDVQQGEwJVUzEP
MA0GA1UECgwGR29vZ2xlMRMwEQYDVQQLDApFbnRlcnByaXNlMRcwFQYDVQQDDA5T
aW5nbGUgUm9vdCBDQTAeFw0yNDA0MDEyMjMyMzdaFw0zNDA0MDEyMjMyMzdaME8x
CzAJBgNVBAcMAlVTMQ8wDQYDVQQKDAZHb29nbGUxEzARBgNVBAsMCkVudGVycHJp
c2UxGjAYBgNVBAMMEWNsaWVudC5kb21haW4uY29tMIIBIjANBgkqhkiG9w0BAQEF
AAOCAQ8AMIIBCgKCAQEAxQRf3LAPAMuBW1rQAEAFFuyBubknSkdGkKhs2AjL4NTG
KjnvDOGGyZfAPRNA6499uf20O5WJnV3LBtvZHN8SHGv5LfoyF3RGE2VahdO67fMJ
oaZHCAPWheYnd28+TLsLCL8stuSrCLVimc2LKvrXQ5r6uVVi+ulB6RpD/Y9qwj6C
yeSsCJkRvBn4YpyL5l3vR3OGdGwg9FPa9Hn3TYnnPH78G3nkFBF1XYsvz13vhtz2
8jTfvXo5pIVUJnw9fjWiv+qFSAPTwNRVeyfkjFsu2hDPM8UONo+CRJsRYIXz9YJa
xom5mq4nczl1ltt+8RRvNK/E+3nZYslMacD85hQucwIDAQABo4IBFTCCAREwDgYD
VR0PAQH/BAQDAgeAMAkGA1UdEwQCMAAwEwYDVR0lBAwwCgYIKwYBBQUHAwIwHQYD
VR0OBBYEFJnkKc9kI7HpPWKbg9kWmOk1XIgoMB8GA1UdIwQYMBaAFOzw6lNTP58j
3MEOMRA3B97e527zMEUGCCsGAQUFBwEBBDkwNzA1BggrBgEFBQcwAoYpaHR0cDov
L3BraS5lc29kZW1vYXBwMi5jb20vY2Evcm9vdC1jYS5jZXIwOgYDVR0fBDMwMTAv
oC2gK4YpaHR0cDovL3BraS5lc29kZW1vYXBwMi5jb20vY2Evcm9vdC1jYS5jcmww
HAYDVR0RBBUwE4IRY2xpZW50LmRvbWFpbi5jb20wDQYJKoZIhvcNAQELBQADggEB
ABFixnuLoWAhhM2Wbrvk83RULabZITyr1CMidT168E/Ekb35E17ZLSxE7V8s+3nk
Plf6U7+wweV/DvirbPYfc483CymcvVfSGe6I49VECYwT2rtOTfkHFoaQxNnnbyer
hY/vPaVbu9wj5LIWu54iXmx5nwf44fb/PMpkC8lf/dbtQD5/fSj4g6PzJQ9XYLx1
q4qvvD0hdBOOmQOzjPlNZ22mXyLnJR/LMHqhdm/oXdo9Vvt1TCNkkNEyMVieanjL
HqYty7gP6cyE5f1Z/O68AUDAC9ra4yFdPFdiabYE0V73XftrXwLNI2GHcZrwP+zg
TBH1jyBK269StLShDNFqhVI=
-----END CERTIFICATE-----
